; Function Attrs: nounwind uwtable
define dso_local range(i64 -60, 1) i64 @ZSTD_CCtx_refCDict(ptr noundef captures(none) %0, ptr noundef %1) local_unnamed_addr #1 {
  %3 = getelementptr inbounds nuw i8, ptr %0, i64 3584
  %4 = load i32, ptr %3, align 8
  %.not = icmp eq i32 %4, 0
  br i1 %.not, label %5, label %7

5:                                                ; preds = %2
  tail call fastcc void @ZSTD_clearAllDicts(ptr noundef nonnull %0)
  %6 = getelementptr inbounds nuw i8, ptr %0, i64 3672
  store ptr %1, ptr %6, align 8
  br label %7

7:                                                ; preds = %2, %5
  %.0 = phi i64 [ 0, %5 ], [ -60, %2 ]
  ret i64 %.0
}